(lp0
(lp1
S''
p2
aF1486532197.343
aS'R'
p3
aa(lp4
g2
aF1486532198.01
ag3
aa(lp5
S'ZOOM_PRESS'
p6
aF1486532198.895
ag2
aa(lp7
S'ZOOM_PRESS'
p8
aF1486532200.134
ag3
aa(lp9
S'ZOOM_PRESS'
p10
aF1486532200.728
ag3
aa(lp11
S'ZOOM_PRESS'
p12
aF1486532203.259
ag3
aa(lp13
S'PB_PRESS'
p14
aF1486532206.191
ag2
aa(lp15
S'PB_PRESS'
p16
aF1486532208.453
ag3
aa(lp17
S'ZOOM_PRESS'
p18
aF1486532216.494
ag2
aa(lp19
S'CAPTURE_PRESS'
p20
aF1486532219.118
ag2
aa(lp21
S'ZOOM_PRESS'
p22
aF1486532219.773
ag2
aa(lp23
S'ZOOM_PRESS'
p24
aF1486532232.944
ag3
aa(lp25
S'PB_PRESS'
p26
aF1486532236.905
ag2
aa(lp27
S'ZOOM_PRESS'
p28
aF1486532239.504
ag2
aa(lp29
S'CAPTURE_PRESS'
p30
aF1486532240.19
ag2
aa(lp31
S'ZOOM_PRESS'
p32
aF1486532254.705
ag2
aa(lp33
S'ZOOM_PRESS'
p34
aF1486532260.334
ag3
aa(lp35
S'ZOOM_PRESS'
p36
aF1486532264.412
ag3
aa(lp37
S'ZOOM_PRESS'
p38
aF1486532264.701
ag3
aa(lp39
S'ZOOM_PRESS'
p40
aF1486532269.311
ag3
aa(lp41
S'PB_PRESS'
p42
aF1486532271.421
ag2
aa(lp43
S'ZOOM_PRESS'
p44
aF1486532273.551
ag2
aa(lp45
S'ZOOM_PRESS'
p46
aF1486532273.986
ag3
aa(lp47
S'ZOOM_PRESS'
p48
aF1486532276.45
ag3
aa(lp49
S'PB_PRESS'
p50
aF1486532277.667
ag2
aa(lp51
S'ZOOM_PRESS'
p52
aF1486532280.208
ag2
aa(lp53
S'ZOOM_PRESS'
p54
aF1486532280.476
ag3
aa(lp55
S'ZOOM_PRESS'
p56
aF1486532282.614
ag3
aa(lp57
S'ZOOM_CLOCKWISE'
p58
aF1486532282.66
ag2
aa(lp59
S'PB_PRESS'
p60
aF1486532283.335
ag2
aa(lp61
S'ZOOM_PRESS'
p62
aF1486532286.993
ag2
aa(lp63
S'ZOOM_PRESS'
p64
aF1486532287.533
ag3
aa.