(lp0
(lp1
(lp2
(lp3
S'ZOOM_PRESS'
p4
aaI7
aaa(lp5
(lp6
(lp7
S'ZOOM_PRESS'
p8
aS'PB_PRESS'
p9
aaI3
aaa(lp10
(lp11
(lp12
S'PB_PRESS'
p13
aS'ZOOM_PRESS'
p14
aaI4
aaa(lp15
(lp16
(lp17
S'ZOOM_PRESS'
p18
aS'CAPTURE_PRESS'
p19
aaI1
aaa(lp20
(lp21
(lp22
S'CAPTURE_PRESS'
p23
aS'ZOOM_PRESS'
p24
aaI1
aaa(lp25
(lp26
(lp27
S'ZOOM_PRESS'
p28
aS'PB_PRESS'
p29
aS'ZOOM_PRESS'
p30
aaI2
aaa(lp31
(lp32
(lp33
S'ZOOM_PRESS'
p34
aS'CAPTURE_PRESS'
p35
aS'ZOOM_PRESS'
p36
aaI1
aaa(lp37
(lp38
(lp39
S'ZOOM_PRESS'
p40
aS'PB_PRESS'
p41
aS'ZOOM_PRESS'
p42
aS'PB_PRESS'
p43
aaI0
aaa(lp44
(lp45
(lp46
S'PB_PRESS'
p47
aS'ZOOM_PRESS'
p48
aS'ZOOM_CLOCKWISE'
p49
aaI0
aaa(lp50
(lp51
(lp52
S'ZOOM_CLOCKWISE'
p53
aS'PB_PRESS'
p54
aaI0
aaa.