(lp0
(lp1
S'ZOOM_PRESS'
p2
aF1486532198.895
aa(lp3
S'PB_PRESS'
p4
aF1486532206.191
aa(lp5
S'ZOOM_PRESS'
p6
aF1486532216.494
aa(lp7
S'CAPTURE_PRESS'
p8
aF1486532219.118
aa(lp9
S'ZOOM_PRESS'
p10
aF1486532219.773
aa(lp11
S'PB_PRESS'
p12
aF1486532236.905
aa(lp13
S'ZOOM_PRESS'
p14
aF1486532239.504
aa(lp15
S'CAPTURE_PRESS'
p16
aF1486532240.19
aa(lp17
S'ZOOM_PRESS'
p18
aF1486532254.705
aa(lp19
S'PB_PRESS'
p20
aF1486532271.421
aa(lp21
S'ZOOM_PRESS'
p22
aF1486532273.551
aa(lp23
S'PB_PRESS'
p24
aF1486532277.667
aa(lp25
S'ZOOM_PRESS'
p26
aF1486532280.208
aa(lp27
S'ZOOM_CLOCKWISE'
p28
aF1486532282.66
aa(lp29
S'PB_PRESS'
p30
aF1486532283.335
aa(lp31
S'ZOOM_PRESS'
p32
aF1486532286.993
aa.