(lp0
(lp1
S''
p2
aF1486532197.343
aa(lp3
g2
aF1486532198.01
aa(lp4
S'ZOOM_PRESS'
p5
aF1486532198.895
aa(lp6
S'ZOOM_PRESS'
p7
aF1486532200.134
aa(lp8
S'ZOOM_PRESS'
p9
aF1486532200.728
aa(lp10
S'ZOOM_PRESS'
p11
aF1486532203.259
aa(lp12
S'PB_PRESS'
p13
aF1486532206.191
aa(lp14
S'PB_PRESS'
p15
aF1486532208.453
aa(lp16
S'ZOOM_PRESS'
p17
aF1486532216.494
aa(lp18
S'CAPTURE_PRESS'
p19
aF1486532219.118
aa(lp20
S'ZOOM_PRESS'
p21
aF1486532219.773
aa(lp22
S'ZOOM_PRESS'
p23
aF1486532232.944
aa(lp24
S'PB_PRESS'
p25
aF1486532236.905
aa(lp26
S'ZOOM_PRESS'
p27
aF1486532239.504
aa(lp28
S'CAPTURE_PRESS'
p29
aF1486532240.19
aa(lp30
S'ZOOM_PRESS'
p31
aF1486532254.705
aa(lp32
S'ZOOM_PRESS'
p33
aF1486532260.334
aa(lp34
S'ZOOM_PRESS'
p35
aF1486532264.412
aa(lp36
S'ZOOM_PRESS'
p37
aF1486532264.701
aa(lp38
S'ZOOM_PRESS'
p39
aF1486532269.311
aa(lp40
S'PB_PRESS'
p41
aF1486532271.421
aa(lp42
S'ZOOM_PRESS'
p43
aF1486532273.551
aa(lp44
S'ZOOM_PRESS'
p45
aF1486532273.986
aa(lp46
S'ZOOM_PRESS'
p47
aF1486532276.45
aa(lp48
S'PB_PRESS'
p49
aF1486532277.667
aa(lp50
S'ZOOM_PRESS'
p51
aF1486532280.208
aa(lp52
S'ZOOM_PRESS'
p53
aF1486532280.476
aa(lp54
S'ZOOM_PRESS'
p55
aF1486532282.614
aa(lp56
S'ZOOM_CLOCKWISE'
p57
aF1486532282.66
aa(lp58
S'PB_PRESS'
p59
aF1486532283.335
aa(lp60
S'ZOOM_PRESS'
p61
aF1486532286.993
aa(lp62
S'ZOOM_PRESS'
p63
aF1486532287.533
aa.